; Function Attrs: cold nounwind uwtable
define void @SUNGlobalFallbackErrHandler(i32 noundef %0, ptr noundef %1, ptr noundef %2, ptr noundef %3, i32 noundef %4, ...) local_unnamed_addr #11 {
  %6 = alloca [1 x %struct.__va_list_tag], align 16
  %7 = alloca ptr, align 8
  call void @llvm.lifetime.start.p0(i64 24, ptr nonnull %6) #17
  call void @llvm.lifetime.start.p0(i64 8, ptr nonnull %7) #17
  store ptr null, ptr %7, align 8, !tbaa !17
  %8 = tail call noalias dereferenceable_or_null(131) ptr @malloc(i64 noundef 131) #16
  %9 = tail call i32 (ptr, i64, ptr, ...) @snprintf(ptr noundef nonnull dereferenceable(1) %8, i64 noundef 131, ptr noundef nonnull @.str.30, ptr noundef nonnull @.str.27, i32 noundef 97) #17
  call void @llvm.va_start.p0(ptr nonnull %6)
  call void @sunCreateLogMessage(i32 noundef 1, i32 noundef 0, ptr noundef nonnull %8, ptr noundef nonnull @__func__.SUNGlobalFallbackErrHandler, ptr noundef nonnull @.str.28, ptr noundef nonnull %6, ptr noundef nonnull %7) #17
  call void @llvm.va_end.p0(ptr nonnull %6)
  %10 = load ptr, ptr @stderr, align 8, !tbaa !19
  %11 = load ptr, ptr %7, align 8, !tbaa !17
  %fputs = call i32 @fputs(ptr %11, ptr %10) #20
  %12 = load ptr, ptr %7, align 8, !tbaa !17
  call void @free(ptr noundef %12) #17
  call void @free(ptr noundef %8) #17
  %13 = call i64 @strlen(ptr noundef nonnull dereferenceable(1) %2) #18
  %14 = add i64 %13, 6
  %15 = call noalias ptr @malloc(i64 noundef %14) #16
  %16 = call i32 (ptr, i64, ptr, ...) @snprintf(ptr noundef %15, i64 noundef %14, ptr noundef nonnull @.str.30, ptr noundef nonnull %2, i32 noundef %0) #17
  %17 = icmp eq ptr %3, null
  br i1 %17, label %18, label %SUNGetErrMsg.exit

18:                                               ; preds = %5
  %switch.tableidx = add i32 %4, 9999
  %19 = icmp ult i32 %switch.tableidx, 25
  br i1 %19, label %switch.lookup, label %SUNGetErrMsg.exit

switch.lookup:                                    ; preds = %18
  %20 = zext nneg i32 %switch.tableidx to i64
  %switch.gep = getelementptr inbounds nuw [25 x ptr], ptr @switch.table.SUNGlobalFallbackErrHandler, i64 0, i64 %20
  %switch.load = load ptr, ptr %switch.gep, align 8
  br label %SUNGetErrMsg.exit

SUNGetErrMsg.exit:                                ; preds = %18, %switch.lookup, %5
  %.0 = phi ptr [ %3, %5 ], [ %switch.load, %switch.lookup ], [ @.str.25, %18 ]
  call void @llvm.va_start.p0(ptr nonnull %6)
  call void @sunCreateLogMessage(i32 noundef 1, i32 noundef 0, ptr noundef %15, ptr noundef %1, ptr noundef nonnull %.0, ptr noundef nonnull %6, ptr noundef nonnull %7) #17
  call void @llvm.va_end.p0(ptr nonnull %6)
  %21 = load ptr, ptr @stderr, align 8, !tbaa !19
  %22 = load ptr, ptr %7, align 8, !tbaa !17
  %fputs10 = call i32 @fputs(ptr %22, ptr %21) #20
  %23 = load ptr, ptr %7, align 8, !tbaa !17
  call void @free(ptr noundef %23) #17
  call void @free(ptr noundef %15) #17
  call void @llvm.lifetime.end.p0(i64 8, ptr nonnull %7) #17
  call void @llvm.lifetime.end.p0(i64 24, ptr nonnull %6) #17
  ret void
}